target datalayout = "e-m:e-p270:32:32-p271:32:32-p272:64:64-i64:64-i128:128-f80:128-n8:16:32:64-S128"
target triple = "x86_64-pc-linux-gnu"

%struct.addrinfo = type { i32, i32, i32, i32, i32, ptr, ptr, ptr }

; Function Attrs: nounwind uwtable
define dso_local i32 @host_has_addr_family(ptr noundef %0, ptr noundef %1, ptr noundef %2, ptr noundef %3) #0 {
  %5 = alloca i32, align 4
  %6 = alloca ptr, align 8
  %7 = alloca ptr, align 8
  %8 = alloca ptr, align 8
  %9 = alloca ptr, align 8
  %10 = alloca %struct.addrinfo, align 8
  %11 = alloca ptr, align 8
  %12 = alloca ptr, align 8
  %13 = alloca i32, align 4
  store ptr %0, ptr %6, align 8
  store ptr %1, ptr %7, align 8
  store ptr %2, ptr %8, align 8
  store ptr %3, ptr %9, align 8
  call void @llvm.lifetime.start.p0(i64 48, ptr %10) #9
  call void @llvm.lifetime.start.p0(i64 8, ptr %11) #9
  call void @llvm.lifetime.start.p0(i64 8, ptr %12) #9
  call void @llvm.memset.p0.i64(ptr align 8 %10, i8 0, i64 48, i1 false)
  %14 = getelementptr inbounds nuw %struct.addrinfo, ptr %10, i32 0, i32 1
  store i32 0, ptr %14, align 4
  %15 = getelementptr inbounds nuw %struct.addrinfo, ptr %10, i32 0, i32 0
  store i32 1057, ptr %15, align 8
  %16 = load ptr, ptr %6, align 8
  %17 = icmp ne ptr %16, null
  br i1 %17, label %18, label %22

18:                                               ; preds = %4
  %19 = getelementptr inbounds nuw %struct.addrinfo, ptr %10, i32 0, i32 0
  %20 = load i32, ptr %19, align 8
  %21 = or i32 %20, 2
  store i32 %21, ptr %19, align 8
  br label %22

22:                                               ; preds = %18, %4
  %23 = getelementptr inbounds nuw %struct.addrinfo, ptr %10, i32 0, i32 2
  store i32 1, ptr %23, align 8
  %24 = load ptr, ptr %6, align 8
  %25 = load ptr, ptr %7, align 8
  %26 = call ptr @_xgetaddrinfo(ptr noundef %24, ptr noundef %25, ptr noundef %10)
  store ptr %26, ptr %12, align 8
  %27 = load ptr, ptr %12, align 8
  %28 = icmp ne ptr %27, null
  br i1 %28, label %30, label %29

29:                                               ; preds = %22
  store i32 -1, ptr %5, align 4
  store i32 1, ptr %13, align 4
  br label %59

30:                                               ; preds = %22
  %31 = load ptr, ptr %9, align 8
  store i8 0, ptr %31, align 1
  %32 = load ptr, ptr %8, align 8
  store i8 0, ptr %32, align 1
  %33 = load ptr, ptr %12, align 8
  store ptr %33, ptr %11, align 8
  br label %34

34:                                               ; preds = %53, %30
  %35 = load ptr, ptr %11, align 8
  %36 = icmp ne ptr %35, null
  br i1 %36, label %37, label %57

37:                                               ; preds = %34
  %38 = load ptr, ptr %11, align 8
  %39 = getelementptr inbounds nuw %struct.addrinfo, ptr %38, i32 0, i32 1
  %40 = load i32, ptr %39, align 4
  %41 = icmp eq i32 %40, 10
  br i1 %41, label %42, label %44

42:                                               ; preds = %37
  %43 = load ptr, ptr %9, align 8
  store i8 1, ptr %43, align 1
  br label %52

44:                                               ; preds = %37
  %45 = load ptr, ptr %11, align 8
  %46 = getelementptr inbounds nuw %struct.addrinfo, ptr %45, i32 0, i32 1
  %47 = load i32, ptr %46, align 4
  %48 = icmp eq i32 %47, 2
  br i1 %48, label %49, label %51

49:                                               ; preds = %44
  %50 = load ptr, ptr %8, align 8
  store i8 1, ptr %50, align 1
  br label %51

51:                                               ; preds = %49, %44
  br label %52

52:                                               ; preds = %51, %42
  br label %53

53:                                               ; preds = %52
  %54 = load ptr, ptr %11, align 8
  %55 = getelementptr inbounds nuw %struct.addrinfo, ptr %54, i32 0, i32 7
  %56 = load ptr, ptr %55, align 8
  store ptr %56, ptr %11, align 8
  br label %34, !llvm.loop !16

57:                                               ; preds = %34
  %58 = load ptr, ptr %12, align 8
  call void @freeaddrinfo(ptr noundef %58) #9
  store i32 0, ptr %5, align 4
  store i32 1, ptr %13, align 4
  br label %59

59:                                               ; preds = %57, %29
  call void @llvm.lifetime.end.p0(i64 8, ptr %12) #9
  call void @llvm.lifetime.end.p0(i64 8, ptr %11) #9
  call void @llvm.lifetime.end.p0(i64 48, ptr %10) #9
  %60 = load i32, ptr %5, align 4
  ret i32 %60
}