; Function Attrs: nounwind uwtable
define dso_local range(i32 -1, 1) i32 @host_has_addr_family(ptr noundef %0, ptr noundef %1, ptr noundef writeonly captures(none) %2, ptr noundef writeonly captures(none) %3) local_unnamed_addr #0 {
.split:
  %4 = alloca %struct.addrinfo, align 8
  call void @llvm.lifetime.start.p0(i64 48, ptr nonnull %4) #14
  call void @llvm.memset.p0.i64(ptr noundef nonnull align 8 dereferenceable(48) %4, i8 0, i64 48, i1 false)
  %.not = icmp eq ptr %0, null
  %spec.store.select = select i1 %.not, i32 1057, i32 1059
  store i32 %spec.store.select, ptr %4, align 8
  %5 = getelementptr inbounds nuw i8, ptr %4, i64 8
  store i32 1, ptr %5, align 8
  %6 = call fastcc ptr @_xgetaddrinfo(ptr noundef %0, ptr noundef %1, ptr noundef %4)
  %.not19 = icmp eq ptr %6, null
  br i1 %.not19, label %16, label %7

7:                                                ; preds = %.split
  store i8 0, ptr %3, align 1
  store i8 0, ptr %2, align 1
  br label %8

8:                                                ; preds = %7, %12
  %.01421 = phi ptr [ %6, %7 ], [ %14, %12 ]
  %9 = getelementptr inbounds nuw i8, ptr %.01421, i64 4
  %10 = load i32, ptr %9, align 4
  switch i32 %10, label %12 [
    i32 10, label %.sink.split
    i32 2, label %11
  ]

11:                                               ; preds = %8
  br label %.sink.split

.sink.split:                                      ; preds = %8, %11
  %.sink23 = phi ptr [ %2, %11 ], [ %3, %8 ]
  store i8 1, ptr %.sink23, align 1
  br label %12

12:                                               ; preds = %.sink.split, %8
  %13 = getelementptr inbounds nuw i8, ptr %.01421, i64 40
  %14 = load ptr, ptr %13, align 8
  %.not20 = icmp eq ptr %14, null
  br i1 %.not20, label %15, label %8, !llvm.loop !14

15:                                               ; preds = %12
  call void @freeaddrinfo(ptr noundef nonnull %6) #14
  br label %16

16:                                               ; preds = %.split, %15
  %.0 = phi i32 [ 0, %15 ], [ -1, %.split ]
  call void @llvm.lifetime.end.p0(i64 48, ptr nonnull %4) #14
  ret i32 %.0
}